; ModuleID = '7/1083.c'
source_filename = "7/1083.c"
target datalayout = "e-m:e-p270:32:32-p271:32:32-p272:64:64-i64:64-f80:128-n8:16:32:64-S128"
target triple = "x86_64-pc-linux-gnu"

@.str = private unnamed_addr constant [7 x i8] c"%s%s%s\00", align 1
@.str.1 = private unnamed_addr constant [3 x i8] c"%s\00", align 1

; Function Attrs: noinline nounwind uwtable
define dso_local i32 @main() #0 {
  %1 = alloca i32, align 4
  %2 = alloca [600 x i8], align 16
  %3 = alloca [260 x i8], align 16
  %4 = alloca [260 x i8], align 16
  %5 = alloca i8*, align 8
  %6 = alloca i32, align 4
  %7 = alloca i32, align 4
  store i32 0, i32* %1, align 4
  %8 = getelementptr inbounds [600 x i8], [600 x i8]* %2, i64 0, i64 0
  call void @llvm.memset.p0i8.i64(i8* align 16 %8, i8 0, i64 600, i1 false)
  %9 = getelementptr inbounds [600 x i8], [600 x i8]* %2, i64 0, i64 0
  %10 = getelementptr inbounds [260 x i8], [260 x i8]* %3, i64 0, i64 0
  %11 = getelementptr inbounds [260 x i8], [260 x i8]* %4, i64 0, i64 0
  %12 = call i32 (i8*, ...) @__isoc99_scanf(i8* getelementptr inbounds ([7 x i8], [7 x i8]* @.str, i64 0, i64 0), i8* %9, i8* %10, i8* %11)
  %13 = getelementptr inbounds [600 x i8], [600 x i8]* %2, i64 0, i64 0
  %14 = getelementptr inbounds [260 x i8], [260 x i8]* %3, i64 0, i64 0
  %15 = call i8* @strstr(i8* %13, i8* %14) #4
  store i8* %15, i8** %5, align 8
  %16 = load i8*, i8** %5, align 8
  %17 = icmp ne i8* %16, null
  br i1 %17, label %18, label %37

18:                                               ; preds = %0
  %19 = getelementptr inbounds [260 x i8], [260 x i8]* %4, i64 0, i64 0
  %20 = call i64 @strlen(i8* %19) #4
  %21 = trunc i64 %20 to i32
  store i32 %21, i32* %6, align 4
  store i32 0, i32* %7, align 4
  br label %22

22:                                               ; preds = %33, %18
  %23 = load i32, i32* %7, align 4
  %24 = load i32, i32* %6, align 4
  %25 = icmp slt i32 %23, %24
  br i1 %25, label %26, label %36

26:                                               ; preds = %22
  %27 = load i32, i32* %7, align 4
  %28 = sext i32 %27 to i64
  %29 = getelementptr inbounds [260 x i8], [260 x i8]* %4, i64 0, i64 %28
  %30 = load i8, i8* %29, align 1
  %31 = load i8*, i8** %5, align 8
  %32 = getelementptr inbounds i8, i8* %31, i32 1
  store i8* %32, i8** %5, align 8
  store i8 %30, i8* %31, align 1
  br label %33

33:                                               ; preds = %26
  %34 = load i32, i32* %7, align 4
  %35 = add nsw i32 %34, 1
  store i32 %35, i32* %7, align 4
  br label %22

36:                                               ; preds = %22
  br label %37

37:                                               ; preds = %36, %0
  %38 = getelementptr inbounds [600 x i8], [600 x i8]* %2, i64 0, i64 0
  %39 = call i32 (i8*, ...) @printf(i8* getelementptr inbounds ([3 x i8], [3 x i8]* @.str.1, i64 0, i64 0), i8* %38)
  %40 = load i32, i32* %1, align 4
  ret i32 %40
}

; Function Attrs: argmemonly nounwind willreturn
declare void @llvm.memset.p0i8.i64(i8* nocapture writeonly, i8, i64, i1 immarg) #1

declare dso_local i32 @__isoc99_scanf(i8*, ...) #2

; Function Attrs: nounwind readonly
declare dso_local i8* @strstr(i8*, i8*) #3

; Function Attrs: nounwind readonly
declare dso_local i64 @strlen(i8*) #3

declare dso_local i32 @printf(i8*, ...) #2


!llvm.module.flags = !{!0}
!llvm.ident = !{!1}

!0 = !{i32 1, !"wchar_size", i32 4}
!1 = !{!"clang version 10.0.0-4ubuntu1 "}
